; ModuleID = '50/2297.c'
source_filename = "50/2297.c"
target datalayout = "e-m:e-p270:32:32-p271:32:32-p272:64:64-i64:64-f80:128-n8:16:32:64-S128"
target triple = "x86_64-pc-linux-gnu"

@.str = private unnamed_addr constant [3 x i8] c"%d\00", align 1
@.str.1 = private unnamed_addr constant [4 x i8] c"%d\0A\00", align 1

; Function Attrs: noinline nounwind uwtable
define dso_local void @main() #0 {
  %1 = alloca i32, align 4
  %2 = alloca i32, align 4
  %3 = alloca i32, align 4
  %4 = alloca i32, align 4
  %5 = alloca i32, align 4
  store i32 0, i32* %4, align 4
  %6 = call i32 (i8*, ...) @__isoc99_scanf(i8* getelementptr inbounds ([3 x i8], [3 x i8]* @.str, i64 0, i64 0), i32* %1)
  %7 = load i32, i32* %1, align 4
  store i32 %7, i32* %5, align 4
  store i32 1, i32* %2, align 4
  br label %8

8:                                                ; preds = %48, %0
  %9 = load i32, i32* %2, align 4
  %10 = icmp slt i32 %9, 13
  br i1 %10, label %11, label %51

11:                                               ; preds = %8
  store i32 0, i32* %4, align 4
  store i32 1, i32* %3, align 4
  br label %12

12:                                               ; preds = %28, %11
  %13 = load i32, i32* %3, align 4
  %14 = load i32, i32* %2, align 4
  %15 = icmp slt i32 %13, %14
  br i1 %15, label %16, label %31

16:                                               ; preds = %12
  %17 = load i32, i32* %3, align 4
  switch i32 %17, label %27 [
    i32 1, label %18
    i32 3, label %18
    i32 5, label %18
    i32 7, label %18
    i32 8, label %18
    i32 10, label %18
    i32 4, label %21
    i32 6, label %21
    i32 9, label %21
    i32 11, label %21
    i32 2, label %24
  ]

18:                                               ; preds = %16, %16, %16, %16, %16, %16
  %19 = load i32, i32* %4, align 4
  %20 = add nsw i32 %19, 31
  store i32 %20, i32* %4, align 4
  br label %27

21:                                               ; preds = %16, %16, %16, %16
  %22 = load i32, i32* %4, align 4
  %23 = add nsw i32 %22, 30
  store i32 %23, i32* %4, align 4
  br label %27

24:                                               ; preds = %16
  %25 = load i32, i32* %4, align 4
  %26 = add nsw i32 %25, 28
  store i32 %26, i32* %4, align 4
  br label %27

27:                                               ; preds = %16, %24, %21, %18
  br label %28

28:                                               ; preds = %27
  %29 = load i32, i32* %3, align 4
  %30 = add nsw i32 %29, 1
  store i32 %30, i32* %3, align 4
  br label %12

31:                                               ; preds = %12
  %32 = load i32, i32* %4, align 4
  %33 = add nsw i32 %32, 12
  store i32 %33, i32* %4, align 4
  %34 = load i32, i32* %1, align 4
  %35 = load i32, i32* %4, align 4
  %36 = srem i32 %35, 7
  %37 = add nsw i32 %34, %36
  store i32 %37, i32* %1, align 4
  %38 = load i32, i32* %1, align 4
  %39 = icmp eq i32 %38, 5
  br i1 %39, label %43, label %40

40:                                               ; preds = %31
  %41 = load i32, i32* %1, align 4
  %42 = icmp eq i32 %41, 12
  br i1 %42, label %43, label %46

43:                                               ; preds = %40, %31
  %44 = load i32, i32* %2, align 4
  %45 = call i32 (i8*, ...) @printf(i8* getelementptr inbounds ([4 x i8], [4 x i8]* @.str.1, i64 0, i64 0), i32 %44)
  br label %46

46:                                               ; preds = %43, %40
  %47 = load i32, i32* %5, align 4
  store i32 %47, i32* %1, align 4
  br label %48

48:                                               ; preds = %46
  %49 = load i32, i32* %2, align 4
  %50 = add nsw i32 %49, 1
  store i32 %50, i32* %2, align 4
  br label %8

51:                                               ; preds = %8
  ret void
}

declare dso_local i32 @__isoc99_scanf(i8*, ...) #1

declare dso_local i32 @printf(i8*, ...) #1


!llvm.module.flags = !{!0}
!llvm.ident = !{!1}

!0 = !{i32 1, !"wchar_size", i32 4}
!1 = !{!"clang version 10.0.0-4ubuntu1 "}
